(dp0
I1
(dp1
S'latitude'
p2
S'49.769021'
p3
sS'note'
p4
S'CNG Port Bene Bene\xc5\xa1ov 24h credit cards, debit cards, fleet cards, CNG CardCentrum +420 775 588 883'
p5
sS'longitude'
p6
S'14.676973'
p7
ssI2
(dp8
g2
S'50.177795'
p9
sg4
S'Karoil Brand\xc3\xbds nad Labem 24h cash, credit cards, CNG CardCentrum +420 737 252 767'
p10
sg6
S'14.671817'
p11
ssI3
(dp12
g2
S'49.195254'
p13
sg4
S'RWE Brno 24h CNG CardCentrum +420 724 167 750'
p14
sg6
S'16.623946'
p15
ssI4
(dp16
g2
S'49.183609'
p17
sg4
S'Benzina Brno 24h cash, credit cards, debit cards, CNG CardCentrum +420 721 868 133'
p18
sg6
S'16.671389'
p19
ssI5
(dp20
g2
S'49.165615'
p21
sg4
S'Benzina Brno 24h cash, credit cards, debit cards, CNG CardCentrum +420 724 258 723'
p22
sg6
S'16.629585'
p23
ssI6
(dp24
g2
S'49.179678'
p25
sg4
S'\xc4\x8cesk\xc3\xa1 po\xc5\xa1ta Brno 24h credit cards, CNG CardCentrum +420 603 716 492'
p26
sg6
S'16.600495'
p27
ss.(lp0
(lp1
Na(dp2
S'distance'
p3
I0
sa(dp4
g3
I0
sa(dp5
g3
I0
sa(dp6
g3
I0
sa(dp7
g3
I0
saa(lp8
(dp9
g3
I0
saNa(dp10
S'duration'
p11
I2797
sg3
I65524
sS'timestamp'
p12
S'20171017141009'
p13
sa(dp14
g11
I7430
sg3
I179846
sg12
S'20171017141009'
p15
sa(dp16
g11
I7487
sg3
I184214
sg12
S'20171017141010'
p17
sa(dp18
g11
I7167
sg3
I177785
sg12
S'20171017141010'
p19
saa(lp20
(dp21
g3
I0
sa(dp22
g11
I2834
sg3
I65451
sg12
S'20171017141010'
p23
saNa(dp24
g11
I8774
sg3
I225918
sg12
S'20171017141010'
p25
sa(dp26
g11
I8830
sg3
I230286
sg12
S'20171017141010'
p27
sa(dp28
g11
I8511
sg3
I223856
sg12
S'20171017141010'
p29
saa(lp30
(dp31
g3
I0
sa(dp32
g11
I7509
sg3
I196225
sg12
S'20171017141010'
p33
sa(dp34
g11
I8663
sg3
I225915
sg12
S'20171017141010'
p35
saNa(dp36
g11
I592
sg3
I4889
sg12
S'20171017141010'
p37
sa(dp38
g11
I585
sg3
I4373
sg12
S'20171017141010'
p39
saa(lp40
(dp41
g3
I0
sa(dp42
g11
I7506
sg3
I200250
sg12
S'20171017141011'
p43
sa(dp44
g11
I8659
sg3
I229940
sg12
S'20171017141011'
p45
sa(dp46
g11
I503
sg3
I4836
sg12
S'20171017141011'
p47
saNa(dp48
g11
I677
sg3
I6027
sg12
S'20171017141011'
p49
saa(lp50
(dp51
g3
I0
sa(dp52
g11
I7106
sg3
I193792
sg12
S'20171017141011'
p53
sa(dp54
g11
I8260
sg3
I223482
sg12
S'20171017141011'
p55
sa(dp56
g11
I794
sg3
I6396
sg12
S'20171017141011'
p57
sa(dp58
g11
I739
sg3
I8688
sg12
S'20171017141011'
p59
saNaa.